; Function Attrs: mustprogress uwtable
define internal void @_ZL35funnel_statistics_copy_to_clipboardP8_GString(ptr nocapture noundef readonly %0) #0 personality ptr @__gxx_personality_v0 {
  %2 = alloca %class.QString, align 16
  %3 = alloca %class.QString, align 16
  %4 = tail call noundef ptr @_ZN15QGuiApplication9clipboardEv()
  %5 = load ptr, ptr %0, align 8
  call void @llvm.lifetime.start.p0(i64 24, ptr nonnull %2)
  %.not.i.i = icmp eq ptr %5, null
  br i1 %.not.i.i, label %_ZN7QStringC2EPKc.exit, label %.split.i.i

.split.i.i:                                       ; preds = %1
  %6 = tail call noundef i64 @strlen(ptr noundef nonnull dereferenceable(1) %5) #24
  br label %_ZN7QStringC2EPKc.exit

_ZN7QStringC2EPKc.exit:                           ; preds = %1, %.split.i.i
  %.sink5.i.i = phi i64 [ %6, %.split.i.i ], [ 0, %1 ]
  call void @_ZN7QString8fromUtf8E14QByteArrayView(ptr dead_on_unwind nonnull writable sret(%class.QString) align 8 %2, i64 %.sink5.i.i, ptr %5)
  %7 = load <2 x ptr>, ptr %2, align 16
  store <2 x ptr> %7, ptr %3, align 16
  %8 = getelementptr inbounds i8, ptr %3, i64 16
  %9 = getelementptr inbounds i8, ptr %2, i64 16
  %10 = load i64, ptr %9, align 16
  store i64 %10, ptr %8, align 16
  call void @llvm.lifetime.end.p0(i64 24, ptr nonnull %2)
  invoke void @_ZN10QClipboard7setTextERK7QStringNS_4ModeE(ptr noundef nonnull align 8 dereferenceable(16) %4, ptr noundef nonnull align 8 dereferenceable(24) %3, i32 noundef 0)
          to label %11 unwind label %16

11:                                               ; preds = %_ZN7QStringC2EPKc.exit
  %12 = load ptr, ptr %3, align 16
  %.not.i.i.i = icmp eq ptr %12, null
  br i1 %.not.i.i.i, label %_ZN7QStringD2Ev.exit, label %_ZN17QArrayDataPointerIDsE5derefEv.exit.i.i

_ZN17QArrayDataPointerIDsE5derefEv.exit.i.i:      ; preds = %11
  %13 = atomicrmw sub ptr %12, i32 1 seq_cst, align 4
  %.not.i.i2 = icmp eq i32 %13, 1
  br i1 %.not.i.i2, label %14, label %_ZN7QStringD2Ev.exit

14:                                               ; preds = %_ZN17QArrayDataPointerIDsE5derefEv.exit.i.i
  %15 = load ptr, ptr %3, align 16
  call void @_ZN10QArrayData10deallocateEPS_xx(ptr noundef %15, i64 noundef 2, i64 noundef 8) #24
  br label %_ZN7QStringD2Ev.exit

_ZN7QStringD2Ev.exit:                             ; preds = %11, %_ZN17QArrayDataPointerIDsE5derefEv.exit.i.i, %14
  ret void

16:                                               ; preds = %_ZN7QStringC2EPKc.exit
  %17 = landingpad { ptr, i32 }
          cleanup
  %18 = load ptr, ptr %3, align 16
  %.not.i.i.i3 = icmp eq ptr %18, null
  br i1 %.not.i.i.i3, label %_ZN7QStringD2Ev.exit6, label %_ZN17QArrayDataPointerIDsE5derefEv.exit.i.i4

_ZN17QArrayDataPointerIDsE5derefEv.exit.i.i4:     ; preds = %16
  %19 = atomicrmw sub ptr %18, i32 1 seq_cst, align 4
  %.not.i.i5 = icmp eq i32 %19, 1
  br i1 %.not.i.i5, label %20, label %_ZN7QStringD2Ev.exit6

20:                                               ; preds = %_ZN17QArrayDataPointerIDsE5derefEv.exit.i.i4
  %21 = load ptr, ptr %3, align 16
  call void @_ZN10QArrayData10deallocateEPS_xx(ptr noundef %21, i64 noundef 2, i64 noundef 8) #24
  br label %_ZN7QStringD2Ev.exit6

_ZN7QStringD2Ev.exit6:                            ; preds = %16, %_ZN17QArrayDataPointerIDsE5derefEv.exit.i.i4, %20
  resume { ptr, i32 } %17
}